target datalayout = "e-m:e-p270:32:32-p271:32:32-p272:64:64-i64:64-i128:128-f80:128-n8:16:32:64-S128"
target triple = "x86_64-pc-linux-gnu"

%struct.expert_field = type { i32, i32 }
%struct.gsm_sms_udh_fields_t = type { i16, i16, i16, i16, i16 }

@hf_gsm_sms_destination_port16 = internal global i32 0, align 4
@hf_gsm_sms_originator_port16 = internal global i32 0, align 4
@ei_gsm_sms_unexpected_data_length = internal global %struct.expert_field zeroinitializer, align 4

; Function Attrs: null_pointer_is_valid sspstrong uwtable
define internal void @dis_iei_apa_16bit(ptr noundef %0, ptr noundef %1, ptr noundef %2, i32 noundef %3, i8 noundef zeroext %4, ptr noundef %5) #0 {
  %7 = alloca ptr, align 8
  %8 = alloca ptr, align 8
  %9 = alloca ptr, align 8
  %10 = alloca i32, align 4
  %11 = alloca i8, align 1
  %12 = alloca ptr, align 8
  store ptr %0, ptr %7, align 8
  store ptr %1, ptr %8, align 8
  store ptr %2, ptr %9, align 8
  store i32 %3, ptr %10, align 4
  store i8 %4, ptr %11, align 1
  store ptr %5, ptr %12, align 8
  %13 = load i8, ptr %11, align 1
  %14 = zext i8 %13 to i32
  %15 = icmp ne i32 %14, 4
  br i1 %15, label %16, label %24

16:                                               ; preds = %6
  %17 = load ptr, ptr %9, align 8
  %18 = load ptr, ptr %8, align 8
  %19 = load ptr, ptr %7, align 8
  %20 = load i32, ptr %10, align 4
  %21 = load i8, ptr %11, align 1
  %22 = zext i8 %21 to i32
  %23 = call ptr @proto_tree_add_expert(ptr noundef %17, ptr noundef %18, ptr noundef @ei_gsm_sms_unexpected_data_length, ptr noundef %19, i32 noundef %20, i32 noundef %22)
  br label %47

24:                                               ; preds = %6
  %25 = load ptr, ptr %7, align 8
  %26 = load i32, ptr %10, align 4
  %27 = call zeroext i16 @tvb_get_ntohs(ptr noundef %25, i32 noundef %26)
  %28 = load ptr, ptr %12, align 8
  %29 = getelementptr inbounds nuw %struct.gsm_sms_udh_fields_t, ptr %28, i32 0, i32 4
  store i16 %27, ptr %29, align 2
  %30 = load ptr, ptr %9, align 8
  %31 = load i32, ptr @hf_gsm_sms_destination_port16, align 4
  %32 = load ptr, ptr %7, align 8
  %33 = load i32, ptr %10, align 4
  %34 = call ptr @proto_tree_add_item(ptr noundef %30, i32 noundef %31, ptr noundef %32, i32 noundef %33, i32 noundef 2, i32 noundef 0)
  %35 = load i32, ptr %10, align 4
  %36 = add i32 %35, 2
  store i32 %36, ptr %10, align 4
  %37 = load ptr, ptr %7, align 8
  %38 = load i32, ptr %10, align 4
  %39 = call zeroext i16 @tvb_get_ntohs(ptr noundef %37, i32 noundef %38)
  %40 = load ptr, ptr %12, align 8
  %41 = getelementptr inbounds nuw %struct.gsm_sms_udh_fields_t, ptr %40, i32 0, i32 3
  store i16 %39, ptr %41, align 2
  %42 = load ptr, ptr %9, align 8
  %43 = load i32, ptr @hf_gsm_sms_originator_port16, align 4
  %44 = load ptr, ptr %7, align 8
  %45 = load i32, ptr %10, align 4
  %46 = call ptr @proto_tree_add_item(ptr noundef %42, i32 noundef %43, ptr noundef %44, i32 noundef %45, i32 noundef 2, i32 noundef 0)
  br label %47

47:                                               ; preds = %24, %16
  ret void
}