; Function Attrs: null_pointer_is_valid sspstrong uwtable
define internal void @dis_iei_apa_16bit(ptr noundef %0, ptr noundef %1, ptr noundef %2, i32 noundef %3, i8 noundef zeroext %4, ptr noundef writeonly captures(none) %5) unnamed_addr #0 {
  %.not = icmp eq i8 %4, 4
  br i1 %.not, label %10, label %7

7:                                                ; preds = %6
  %8 = zext i8 %4 to i32
  %9 = tail call ptr @proto_tree_add_expert(ptr noundef %2, ptr noundef %1, ptr noundef nonnull @ei_gsm_sms_unexpected_data_length, ptr noundef %0, i32 noundef %3, i32 noundef %8)
  br label %20

10:                                               ; preds = %6
  %11 = tail call zeroext i16 @tvb_get_ntohs(ptr noundef %0, i32 noundef %3)
  %12 = getelementptr inbounds nuw i8, ptr %5, i64 8
  store i16 %11, ptr %12, align 2
  %13 = load i32, ptr @hf_gsm_sms_destination_port16, align 4
  %14 = tail call ptr @proto_tree_add_item(ptr noundef %2, i32 noundef %13, ptr noundef %0, i32 noundef %3, i32 noundef 2, i32 noundef 0)
  %15 = add i32 %3, 2
  %16 = tail call zeroext i16 @tvb_get_ntohs(ptr noundef %0, i32 noundef %15)
  %17 = getelementptr inbounds nuw i8, ptr %5, i64 6
  store i16 %16, ptr %17, align 2
  %18 = load i32, ptr @hf_gsm_sms_originator_port16, align 4
  %19 = tail call ptr @proto_tree_add_item(ptr noundef %2, i32 noundef %18, ptr noundef %0, i32 noundef %15, i32 noundef 2, i32 noundef 0)
  br label %20

20:                                               ; preds = %10, %7
  ret void
}